; Function Attrs: nounwind uwtable
define internal range(i32 -1, 65) i32 @archive_read_format_ar_bid(ptr noundef %0, i32 %1) #0 {
  %3 = tail call ptr @__archive_read_ahead(ptr noundef %0, i64 noundef 8, ptr noundef null) #13
  %4 = icmp eq ptr %3, null
  br i1 %4, label %7, label %5

5:                                                ; preds = %2
  %bcmp = tail call i32 @bcmp(ptr noundef nonnull dereferenceable(8) %3, ptr noundef nonnull dereferenceable(8) @.str.3, i64 8)
  %6 = icmp eq i32 %bcmp, 0
  %. = select i1 %6, i32 64, i32 -1
  br label %7

7:                                                ; preds = %5, %2
  %.0 = phi i32 [ -1, %2 ], [ %., %5 ]
  ret i32 %.0
}